; ModuleID = '48/1523.c'
source_filename = "48/1523.c"
target datalayout = "e-m:e-p270:32:32-p271:32:32-p272:64:64-i64:64-f80:128-n8:16:32:64-S128"
target triple = "x86_64-pc-linux-gnu"

@a = dso_local global [11 x [11 x i32]] zeroinitializer, align 16
@b = common dso_local global [11 x [11 x i32]] zeroinitializer, align 16
@.str = private unnamed_addr constant [6 x i8] c"%d %d\00", align 1
@.str.1 = private unnamed_addr constant [4 x i8] c"%d \00", align 1
@.str.2 = private unnamed_addr constant [4 x i8] c"%d\0A\00", align 1

; Function Attrs: noinline nounwind uwtable
define dso_local i32 @sum(i32 %0, i32 %1) #0 {
  %3 = alloca i32, align 4
  %4 = alloca i32, align 4
  store i32 %0, i32* %3, align 4
  store i32 %1, i32* %4, align 4
  %5 = load i32, i32* %3, align 4
  %6 = sub nsw i32 %5, 1
  %7 = sext i32 %6 to i64
  %8 = getelementptr inbounds [11 x [11 x i32]], [11 x [11 x i32]]* @a, i64 0, i64 %7
  %9 = load i32, i32* %4, align 4
  %10 = sub nsw i32 %9, 1
  %11 = sext i32 %10 to i64
  %12 = getelementptr inbounds [11 x i32], [11 x i32]* %8, i64 0, i64 %11
  %13 = load i32, i32* %12, align 4
  %14 = load i32, i32* %3, align 4
  %15 = sub nsw i32 %14, 1
  %16 = sext i32 %15 to i64
  %17 = getelementptr inbounds [11 x [11 x i32]], [11 x [11 x i32]]* @a, i64 0, i64 %16
  %18 = load i32, i32* %4, align 4
  %19 = sext i32 %18 to i64
  %20 = getelementptr inbounds [11 x i32], [11 x i32]* %17, i64 0, i64 %19
  %21 = load i32, i32* %20, align 4
  %22 = add nsw i32 %13, %21
  %23 = load i32, i32* %3, align 4
  %24 = sub nsw i32 %23, 1
  %25 = sext i32 %24 to i64
  %26 = getelementptr inbounds [11 x [11 x i32]], [11 x [11 x i32]]* @a, i64 0, i64 %25
  %27 = load i32, i32* %4, align 4
  %28 = add nsw i32 %27, 1
  %29 = sext i32 %28 to i64
  %30 = getelementptr inbounds [11 x i32], [11 x i32]* %26, i64 0, i64 %29
  %31 = load i32, i32* %30, align 4
  %32 = add nsw i32 %22, %31
  %33 = load i32, i32* %3, align 4
  %34 = sext i32 %33 to i64
  %35 = getelementptr inbounds [11 x [11 x i32]], [11 x [11 x i32]]* @a, i64 0, i64 %34
  %36 = load i32, i32* %4, align 4
  %37 = sub nsw i32 %36, 1
  %38 = sext i32 %37 to i64
  %39 = getelementptr inbounds [11 x i32], [11 x i32]* %35, i64 0, i64 %38
  %40 = load i32, i32* %39, align 4
  %41 = add nsw i32 %32, %40
  %42 = load i32, i32* %3, align 4
  %43 = sext i32 %42 to i64
  %44 = getelementptr inbounds [11 x [11 x i32]], [11 x [11 x i32]]* @a, i64 0, i64 %43
  %45 = load i32, i32* %4, align 4
  %46 = add nsw i32 %45, 1
  %47 = sext i32 %46 to i64
  %48 = getelementptr inbounds [11 x i32], [11 x i32]* %44, i64 0, i64 %47
  %49 = load i32, i32* %48, align 4
  %50 = add nsw i32 %41, %49
  %51 = load i32, i32* %3, align 4
  %52 = add nsw i32 %51, 1
  %53 = sext i32 %52 to i64
  %54 = getelementptr inbounds [11 x [11 x i32]], [11 x [11 x i32]]* @a, i64 0, i64 %53
  %55 = load i32, i32* %4, align 4
  %56 = sub nsw i32 %55, 1
  %57 = sext i32 %56 to i64
  %58 = getelementptr inbounds [11 x i32], [11 x i32]* %54, i64 0, i64 %57
  %59 = load i32, i32* %58, align 4
  %60 = add nsw i32 %50, %59
  %61 = load i32, i32* %3, align 4
  %62 = add nsw i32 %61, 1
  %63 = sext i32 %62 to i64
  %64 = getelementptr inbounds [11 x [11 x i32]], [11 x [11 x i32]]* @a, i64 0, i64 %63
  %65 = load i32, i32* %4, align 4
  %66 = sext i32 %65 to i64
  %67 = getelementptr inbounds [11 x i32], [11 x i32]* %64, i64 0, i64 %66
  %68 = load i32, i32* %67, align 4
  %69 = add nsw i32 %60, %68
  %70 = load i32, i32* %3, align 4
  %71 = add nsw i32 %70, 1
  %72 = sext i32 %71 to i64
  %73 = getelementptr inbounds [11 x [11 x i32]], [11 x [11 x i32]]* @a, i64 0, i64 %72
  %74 = load i32, i32* %4, align 4
  %75 = add nsw i32 %74, 1
  %76 = sext i32 %75 to i64
  %77 = getelementptr inbounds [11 x i32], [11 x i32]* %73, i64 0, i64 %76
  %78 = load i32, i32* %77, align 4
  %79 = add nsw i32 %69, %78
  %80 = load i32, i32* %3, align 4
  %81 = sext i32 %80 to i64
  %82 = getelementptr inbounds [11 x [11 x i32]], [11 x [11 x i32]]* @a, i64 0, i64 %81
  %83 = load i32, i32* %4, align 4
  %84 = sext i32 %83 to i64
  %85 = getelementptr inbounds [11 x i32], [11 x i32]* %82, i64 0, i64 %84
  %86 = load i32, i32* %85, align 4
  %87 = mul nsw i32 2, %86
  %88 = add nsw i32 %79, %87
  %89 = load i32, i32* %3, align 4
  %90 = sext i32 %89 to i64
  %91 = getelementptr inbounds [11 x [11 x i32]], [11 x [11 x i32]]* @b, i64 0, i64 %90
  %92 = load i32, i32* %4, align 4
  %93 = sext i32 %92 to i64
  %94 = getelementptr inbounds [11 x i32], [11 x i32]* %91, i64 0, i64 %93
  store i32 %88, i32* %94, align 4
  %95 = load i32, i32* %3, align 4
  %96 = sext i32 %95 to i64
  %97 = getelementptr inbounds [11 x [11 x i32]], [11 x [11 x i32]]* @b, i64 0, i64 %96
  %98 = load i32, i32* %4, align 4
  %99 = sext i32 %98 to i64
  %100 = getelementptr inbounds [11 x i32], [11 x i32]* %97, i64 0, i64 %99
  %101 = load i32, i32* %100, align 4
  ret i32 %101
}

; Function Attrs: noinline nounwind uwtable
define dso_local i32 @main() #0 {
  %1 = alloca i32, align 4
  %2 = alloca i32, align 4
  %3 = alloca i32, align 4
  %4 = alloca i32, align 4
  %5 = alloca i32, align 4
  %6 = alloca i32, align 4
  %7 = alloca i32, align 4
  %8 = alloca i32, align 4
  store i32 0, i32* %1, align 4
  %9 = call i32 (i8*, ...) @__isoc99_scanf(i8* getelementptr inbounds ([6 x i8], [6 x i8]* @.str, i64 0, i64 0), i32* %2, i32* %3)
  %10 = load i32, i32* %2, align 4
  store i32 %10, i32* getelementptr inbounds ([11 x [11 x i32]], [11 x [11 x i32]]* @a, i64 0, i64 5, i64 5), align 4
  store i32 1, i32* %6, align 4
  br label %11

11:                                               ; preds = %78, %0
  %12 = load i32, i32* %6, align 4
  %13 = load i32, i32* %3, align 4
  %14 = icmp sle i32 %12, %13
  br i1 %14, label %15, label %81

15:                                               ; preds = %11
  %16 = load i32, i32* %6, align 4
  %17 = sub nsw i32 5, %16
  store i32 %17, i32* %4, align 4
  br label %18

18:                                               ; preds = %45, %15
  %19 = load i32, i32* %4, align 4
  %20 = load i32, i32* %6, align 4
  %21 = add nsw i32 5, %20
  %22 = icmp sle i32 %19, %21
  br i1 %22, label %23, label %48

23:                                               ; preds = %18
  %24 = load i32, i32* %6, align 4
  %25 = sub nsw i32 5, %24
  store i32 %25, i32* %5, align 4
  br label %26

26:                                               ; preds = %41, %23
  %27 = load i32, i32* %5, align 4
  %28 = load i32, i32* %6, align 4
  %29 = add nsw i32 5, %28
  %30 = icmp sle i32 %27, %29
  br i1 %30, label %31, label %44

31:                                               ; preds = %26
  %32 = load i32, i32* %4, align 4
  %33 = load i32, i32* %5, align 4
  %34 = call i32 @sum(i32 %32, i32 %33)
  %35 = load i32, i32* %4, align 4
  %36 = sext i32 %35 to i64
  %37 = getelementptr inbounds [11 x [11 x i32]], [11 x [11 x i32]]* @b, i64 0, i64 %36
  %38 = load i32, i32* %5, align 4
  %39 = sext i32 %38 to i64
  %40 = getelementptr inbounds [11 x i32], [11 x i32]* %37, i64 0, i64 %39
  store i32 %34, i32* %40, align 4
  br label %41

41:                                               ; preds = %31
  %42 = load i32, i32* %5, align 4
  %43 = add nsw i32 %42, 1
  store i32 %43, i32* %5, align 4
  br label %26

44:                                               ; preds = %26
  br label %45

45:                                               ; preds = %44
  %46 = load i32, i32* %4, align 4
  %47 = add nsw i32 %46, 1
  store i32 %47, i32* %4, align 4
  br label %18

48:                                               ; preds = %18
  store i32 0, i32* %7, align 4
  br label %49

49:                                               ; preds = %74, %48
  %50 = load i32, i32* %7, align 4
  %51 = icmp slt i32 %50, 11
  br i1 %51, label %52, label %77

52:                                               ; preds = %49
  store i32 0, i32* %8, align 4
  br label %53

53:                                               ; preds = %70, %52
  %54 = load i32, i32* %8, align 4
  %55 = icmp slt i32 %54, 11
  br i1 %55, label %56, label %73

56:                                               ; preds = %53
  %57 = load i32, i32* %7, align 4
  %58 = sext i32 %57 to i64
  %59 = getelementptr inbounds [11 x [11 x i32]], [11 x [11 x i32]]* @b, i64 0, i64 %58
  %60 = load i32, i32* %8, align 4
  %61 = sext i32 %60 to i64
  %62 = getelementptr inbounds [11 x i32], [11 x i32]* %59, i64 0, i64 %61
  %63 = load i32, i32* %62, align 4
  %64 = load i32, i32* %7, align 4
  %65 = sext i32 %64 to i64
  %66 = getelementptr inbounds [11 x [11 x i32]], [11 x [11 x i32]]* @a, i64 0, i64 %65
  %67 = load i32, i32* %8, align 4
  %68 = sext i32 %67 to i64
  %69 = getelementptr inbounds [11 x i32], [11 x i32]* %66, i64 0, i64 %68
  store i32 %63, i32* %69, align 4
  br label %70

70:                                               ; preds = %56
  %71 = load i32, i32* %8, align 4
  %72 = add nsw i32 %71, 1
  store i32 %72, i32* %8, align 4
  br label %53

73:                                               ; preds = %53
  br label %74

74:                                               ; preds = %73
  %75 = load i32, i32* %7, align 4
  %76 = add nsw i32 %75, 1
  store i32 %76, i32* %7, align 4
  br label %49

77:                                               ; preds = %49
  br label %78

78:                                               ; preds = %77
  %79 = load i32, i32* %6, align 4
  %80 = add nsw i32 %79, 1
  store i32 %80, i32* %6, align 4
  br label %11

81:                                               ; preds = %11
  store i32 1, i32* %4, align 4
  br label %82

82:                                               ; preds = %110, %81
  %83 = load i32, i32* %4, align 4
  %84 = icmp slt i32 %83, 10
  br i1 %84, label %85, label %113

85:                                               ; preds = %82
  store i32 1, i32* %5, align 4
  br label %86

86:                                               ; preds = %98, %85
  %87 = load i32, i32* %5, align 4
  %88 = icmp slt i32 %87, 9
  br i1 %88, label %89, label %101

89:                                               ; preds = %86
  %90 = load i32, i32* %4, align 4
  %91 = sext i32 %90 to i64
  %92 = getelementptr inbounds [11 x [11 x i32]], [11 x [11 x i32]]* @b, i64 0, i64 %91
  %93 = load i32, i32* %5, align 4
  %94 = sext i32 %93 to i64
  %95 = getelementptr inbounds [11 x i32], [11 x i32]* %92, i64 0, i64 %94
  %96 = load i32, i32* %95, align 4
  %97 = call i32 (i8*, ...) @printf(i8* getelementptr inbounds ([4 x i8], [4 x i8]* @.str.1, i64 0, i64 0), i32 %96)
  br label %98

98:                                               ; preds = %89
  %99 = load i32, i32* %5, align 4
  %100 = add nsw i32 %99, 1
  store i32 %100, i32* %5, align 4
  br label %86

101:                                              ; preds = %86
  %102 = load i32, i32* %4, align 4
  %103 = sext i32 %102 to i64
  %104 = getelementptr inbounds [11 x [11 x i32]], [11 x [11 x i32]]* @b, i64 0, i64 %103
  %105 = load i32, i32* %5, align 4
  %106 = sext i32 %105 to i64
  %107 = getelementptr inbounds [11 x i32], [11 x i32]* %104, i64 0, i64 %106
  %108 = load i32, i32* %107, align 4
  %109 = call i32 (i8*, ...) @printf(i8* getelementptr inbounds ([4 x i8], [4 x i8]* @.str.2, i64 0, i64 0), i32 %108)
  br label %110

110:                                              ; preds = %101
  %111 = load i32, i32* %4, align 4
  %112 = add nsw i32 %111, 1
  store i32 %112, i32* %4, align 4
  br label %82

113:                                              ; preds = %82
  ret i32 0
}

declare dso_local i32 @__isoc99_scanf(i8*, ...) #1

declare dso_local i32 @printf(i8*, ...) #1


!llvm.module.flags = !{!0}
!llvm.ident = !{!1}

!0 = !{i32 1, !"wchar_size", i32 4}
!1 = !{!"clang version 10.0.0-4ubuntu1 "}
